; ModuleID = 'source-C-CXX/29/3128.cpp'
source_filename = "source-C-CXX/29/3128.cpp"
target datalayout = "e-m:e-p270:32:32-p271:32:32-p272:64:64-i64:64-f80:128-n8:16:32:64-S128"
target triple = "x86_64-pc-linux-gnu"

%"class.std::ios_base::Init" = type { i8 }
%"class.std::basic_istream" = type { i32 (...)**, i64, %"class.std::basic_ios" }
%"class.std::basic_ios" = type { %"class.std::ios_base", %"class.std::basic_ostream"*, i8, i8, %"class.std::basic_streambuf"*, %"class.std::ctype"*, %"class.std::num_put"*, %"class.std::num_get"* }
%"class.std::ios_base" = type { i32 (...)**, i64, i64, i32, i32, i32, %"struct.std::ios_base::_Callback_list"*, %"struct.std::ios_base::_Words", [8 x %"struct.std::ios_base::_Words"], i32, %"struct.std::ios_base::_Words"*, %"class.std::locale" }
%"struct.std::ios_base::_Callback_list" = type { %"struct.std::ios_base::_Callback_list"*, void (i32, %"class.std::ios_base"*, i32)*, i32, i32 }
%"struct.std::ios_base::_Words" = type { i8*, i64 }
%"class.std::locale" = type { %"class.std::locale::_Impl"* }
%"class.std::locale::_Impl" = type { i32, %"class.std::locale::facet"**, i64, %"class.std::locale::facet"**, i8** }
%"class.std::locale::facet" = type <{ i32 (...)**, i32, [4 x i8] }>
%"class.std::basic_ostream" = type { i32 (...)**, %"class.std::basic_ios" }
%"class.std::basic_streambuf" = type { i32 (...)**, i8*, i8*, i8*, i8*, i8*, i8*, %"class.std::locale" }
%"class.std::ctype" = type <{ %"class.std::locale::facet.base", [4 x i8], %struct.__locale_struct*, i8, [7 x i8], i32*, i32*, i16*, i8, [256 x i8], [256 x i8], i8, [6 x i8] }>
%"class.std::locale::facet.base" = type <{ i32 (...)**, i32 }>
%struct.__locale_struct = type { [13 x %struct.__locale_data*], i16*, i32*, i32*, [13 x i8*] }
%struct.__locale_data = type opaque
%"class.std::num_put" = type { %"class.std::locale::facet.base", [4 x i8] }
%"class.std::num_get" = type { %"class.std::locale::facet.base", [4 x i8] }

@_ZStL8__ioinit = internal global %"class.std::ios_base::Init" zeroinitializer, align 1
@__dso_handle = external hidden global i8
@_ZSt3cin = external global %"class.std::basic_istream", align 8
@_ZSt4cout = external global %"class.std::basic_ostream", align 8
@llvm.global_ctors = appending global [1 x { i32, void ()*, i8* }] [{ i32, void ()*, i8* } { i32 65535, void ()* @_GLOBAL__sub_I_3128.cpp, i8* null }]

declare void @_ZNSt8ios_base4InitC1Ev(%"class.std::ios_base::Init"* nonnull align 1 dereferenceable(1)) unnamed_addr #0

; Function Attrs: nounwind
declare void @_ZNSt8ios_base4InitD1Ev(%"class.std::ios_base::Init"* nonnull align 1 dereferenceable(1)) unnamed_addr #1

; Function Attrs: nofree nounwind
declare i32 @__cxa_atexit(void (i8*)*, i8*, i8*) local_unnamed_addr #2

; Function Attrs: mustprogress norecurse sspstrong uwtable
define dso_local i32 @main() local_unnamed_addr #3 {
  %1 = alloca i32, align 4
  %2 = alloca [100 x i32], align 16
  %3 = bitcast i32* %1 to i8*
  call void @llvm.lifetime.start.p0i8(i64 4, i8* nonnull %3) #8
  %4 = bitcast [100 x i32]* %2 to i8*
  call void @llvm.lifetime.start.p0i8(i64 400, i8* nonnull %4) #8
  %5 = call nonnull align 8 dereferenceable(16) %"class.std::basic_istream"* @_ZNSirsERi(%"class.std::basic_istream"* nonnull align 8 dereferenceable(16) @_ZSt3cin, i32* nonnull align 4 dereferenceable(4) %1)
  %6 = load i32, i32* %1, align 4, !tbaa !5
  %7 = icmp slt i32 %6, 1
  br i1 %7, label %96, label %8

8:                                                ; preds = %0
  %9 = add nuw i32 %6, 1
  %10 = zext i32 %9 to i64
  %11 = add nsw i64 %10, -1
  %12 = icmp ult i64 %11, 4
  br i1 %12, label %38, label %13

13:                                               ; preds = %8
  %14 = and i64 %11, -4
  %15 = or i64 %14, 1
  br label %16

16:                                               ; preds = %16, %13
  %17 = phi i64 [ 0, %13 ], [ %32, %16 ]
  %18 = phi <4 x i32> [ <i32 1, i32 2, i32 3, i32 4>, %13 ], [ %33, %16 ]
  %19 = phi <4 x i32> [ <i32 1, i32 2, i32 3, i32 4>, %13 ], [ %34, %16 ]
  %20 = or i64 %17, 1
  %21 = urem <4 x i32> %18, <i32 7, i32 7, i32 7, i32 7>
  %22 = icmp eq <4 x i32> %21, zeroinitializer
  %23 = urem <4 x i32> %18, <i32 10, i32 10, i32 10, i32 10>
  %24 = icmp eq <4 x i32> %23, <i32 7, i32 7, i32 7, i32 7>
  %25 = or <4 x i1> %22, %24
  %26 = add <4 x i32> %19, <i32 -70, i32 -70, i32 -70, i32 -70>
  %27 = icmp ult <4 x i32> %26, <i32 10, i32 10, i32 10, i32 10>
  %28 = select <4 x i1> %25, <4 x i1> <i1 true, i1 true, i1 true, i1 true>, <4 x i1> %27
  %29 = zext <4 x i1> %28 to <4 x i32>
  %30 = getelementptr inbounds [100 x i32], [100 x i32]* %2, i64 0, i64 %20
  %31 = bitcast i32* %30 to <4 x i32>*
  store <4 x i32> %29, <4 x i32>* %31, align 4
  %32 = add nuw i64 %17, 4
  %33 = add <4 x i32> %18, <i32 4, i32 4, i32 4, i32 4>
  %34 = add <4 x i32> %19, <i32 4, i32 4, i32 4, i32 4>
  %35 = icmp eq i64 %32, %14
  br i1 %35, label %36, label %16, !llvm.loop !9

36:                                               ; preds = %16
  %37 = icmp eq i64 %11, %14
  br i1 %37, label %40, label %38

38:                                               ; preds = %8, %36
  %39 = phi i64 [ 1, %8 ], [ %15, %36 ]
  br label %80

40:                                               ; preds = %80, %36
  br i1 %7, label %96, label %41

41:                                               ; preds = %40
  %42 = add nuw i32 %6, 1
  %43 = zext i32 %42 to i64
  %44 = add nsw i64 %10, -1
  %45 = icmp ult i64 %44, 8
  br i1 %45, label %77, label %46

46:                                               ; preds = %41
  %47 = and i64 %44, -8
  %48 = or i64 %47, 1
  br label %49

49:                                               ; preds = %49, %46
  %50 = phi i64 [ 0, %46 ], [ %70, %49 ]
  %51 = phi <4 x i32> [ zeroinitializer, %46 ], [ %68, %49 ]
  %52 = phi <4 x i32> [ zeroinitializer, %46 ], [ %69, %49 ]
  %53 = phi <4 x i32> [ <i32 1, i32 2, i32 3, i32 4>, %46 ], [ %71, %49 ]
  %54 = or i64 %50, 1
  %55 = getelementptr inbounds [100 x i32], [100 x i32]* %2, i64 0, i64 %54
  %56 = bitcast i32* %55 to <4 x i32>*
  %57 = load <4 x i32>, <4 x i32>* %56, align 4, !tbaa !5
  %58 = getelementptr inbounds i32, i32* %55, i64 4
  %59 = bitcast i32* %58 to <4 x i32>*
  %60 = load <4 x i32>, <4 x i32>* %59, align 4, !tbaa !5
  %61 = icmp eq <4 x i32> %57, zeroinitializer
  %62 = icmp eq <4 x i32> %60, zeroinitializer
  %63 = add <4 x i32> %53, <i32 4, i32 4, i32 4, i32 4>
  %64 = mul nsw <4 x i32> %53, %53
  %65 = mul nsw <4 x i32> %63, %63
  %66 = select <4 x i1> %61, <4 x i32> %64, <4 x i32> zeroinitializer
  %67 = select <4 x i1> %62, <4 x i32> %65, <4 x i32> zeroinitializer
  %68 = add <4 x i32> %66, %51
  %69 = add <4 x i32> %67, %52
  %70 = add nuw i64 %50, 8
  %71 = add <4 x i32> %53, <i32 8, i32 8, i32 8, i32 8>
  %72 = icmp eq i64 %70, %47
  br i1 %72, label %73, label %49, !llvm.loop !12

73:                                               ; preds = %49
  %74 = add <4 x i32> %69, %68
  %75 = call i32 @llvm.vector.reduce.add.v4i32(<4 x i32> %74)
  %76 = icmp eq i64 %44, %47
  br i1 %76, label %96, label %77

77:                                               ; preds = %41, %73
  %78 = phi i64 [ 1, %41 ], [ %48, %73 ]
  %79 = phi i32 [ 0, %41 ], [ %75, %73 ]
  br label %128

80:                                               ; preds = %38, %80
  %81 = phi i64 [ %94, %80 ], [ %39, %38 ]
  %82 = trunc i64 %81 to i32
  %83 = urem i32 %82, 7
  %84 = icmp eq i32 %83, 0
  %85 = urem i32 %82, 10
  %86 = icmp eq i32 %85, 7
  %87 = or i1 %84, %86
  %88 = trunc i64 %81 to i32
  %89 = add i32 %88, -70
  %90 = icmp ult i32 %89, 10
  %91 = select i1 %87, i1 true, i1 %90
  %92 = zext i1 %91 to i32
  %93 = getelementptr inbounds [100 x i32], [100 x i32]* %2, i64 0, i64 %81
  store i32 %92, i32* %93, align 4
  %94 = add nuw nsw i64 %81, 1
  %95 = icmp eq i64 %94, %10
  br i1 %95, label %40, label %80, !llvm.loop !13

96:                                               ; preds = %128, %73, %0, %40
  %97 = phi i32 [ 0, %40 ], [ 0, %0 ], [ %75, %73 ], [ %137, %128 ]
  %98 = call nonnull align 8 dereferenceable(8) %"class.std::basic_ostream"* @_ZNSolsEi(%"class.std::basic_ostream"* nonnull align 8 dereferenceable(8) @_ZSt4cout, i32 %97)
  %99 = bitcast %"class.std::basic_ostream"* %98 to i8**
  %100 = load i8*, i8** %99, align 8, !tbaa !15
  %101 = getelementptr i8, i8* %100, i64 -24
  %102 = bitcast i8* %101 to i64*
  %103 = load i64, i64* %102, align 8
  %104 = bitcast %"class.std::basic_ostream"* %98 to i8*
  %105 = add nsw i64 %103, 240
  %106 = getelementptr inbounds i8, i8* %104, i64 %105
  %107 = bitcast i8* %106 to %"class.std::ctype"**
  %108 = load %"class.std::ctype"*, %"class.std::ctype"** %107, align 8, !tbaa !17
  %109 = icmp eq %"class.std::ctype"* %108, null
  br i1 %109, label %110, label %111

110:                                              ; preds = %96
  call void @_ZSt16__throw_bad_castv() #9
  unreachable

111:                                              ; preds = %96
  %112 = getelementptr inbounds %"class.std::ctype", %"class.std::ctype"* %108, i64 0, i32 8
  %113 = load i8, i8* %112, align 8, !tbaa !21
  %114 = icmp eq i8 %113, 0
  br i1 %114, label %118, label %115

115:                                              ; preds = %111
  %116 = getelementptr inbounds %"class.std::ctype", %"class.std::ctype"* %108, i64 0, i32 9, i64 10
  %117 = load i8, i8* %116, align 1, !tbaa !23
  br label %124

118:                                              ; preds = %111
  call void @_ZNKSt5ctypeIcE13_M_widen_initEv(%"class.std::ctype"* nonnull align 8 dereferenceable(570) %108)
  %119 = bitcast %"class.std::ctype"* %108 to i8 (%"class.std::ctype"*, i8)***
  %120 = load i8 (%"class.std::ctype"*, i8)**, i8 (%"class.std::ctype"*, i8)*** %119, align 8, !tbaa !15
  %121 = getelementptr inbounds i8 (%"class.std::ctype"*, i8)*, i8 (%"class.std::ctype"*, i8)** %120, i64 6
  %122 = load i8 (%"class.std::ctype"*, i8)*, i8 (%"class.std::ctype"*, i8)** %121, align 8
  %123 = call signext i8 %122(%"class.std::ctype"* nonnull align 8 dereferenceable(570) %108, i8 signext 10)
  br label %124

124:                                              ; preds = %115, %118
  %125 = phi i8 [ %117, %115 ], [ %123, %118 ]
  %126 = call nonnull align 8 dereferenceable(8) %"class.std::basic_ostream"* @_ZNSo3putEc(%"class.std::basic_ostream"* nonnull align 8 dereferenceable(8) %98, i8 signext %125)
  %127 = call nonnull align 8 dereferenceable(8) %"class.std::basic_ostream"* @_ZNSo5flushEv(%"class.std::basic_ostream"* nonnull align 8 dereferenceable(8) %126)
  call void @llvm.lifetime.end.p0i8(i64 400, i8* nonnull %4) #8
  call void @llvm.lifetime.end.p0i8(i64 4, i8* nonnull %3) #8
  ret i32 0

128:                                              ; preds = %77, %128
  %129 = phi i64 [ %138, %128 ], [ %78, %77 ]
  %130 = phi i32 [ %137, %128 ], [ %79, %77 ]
  %131 = getelementptr inbounds [100 x i32], [100 x i32]* %2, i64 0, i64 %129
  %132 = load i32, i32* %131, align 4, !tbaa !5
  %133 = icmp eq i32 %132, 0
  %134 = trunc i64 %129 to i32
  %135 = mul nsw i32 %134, %134
  %136 = select i1 %133, i32 %135, i32 0
  %137 = add nuw nsw i32 %136, %130
  %138 = add nuw nsw i64 %129, 1
  %139 = icmp eq i64 %138, %43
  br i1 %139, label %96, label %128, !llvm.loop !24
}

; Function Attrs: argmemonly mustprogress nofree nosync nounwind willreturn
declare void @llvm.lifetime.start.p0i8(i64 immarg, i8* nocapture) #4

declare nonnull align 8 dereferenceable(16) %"class.std::basic_istream"* @_ZNSirsERi(%"class.std::basic_istream"* nonnull align 8 dereferenceable(16), i32* nonnull align 4 dereferenceable(4)) local_unnamed_addr #0

; Function Attrs: argmemonly mustprogress nofree nosync nounwind willreturn
declare void @llvm.lifetime.end.p0i8(i64 immarg, i8* nocapture) #4

declare nonnull align 8 dereferenceable(8) %"class.std::basic_ostream"* @_ZNSolsEi(%"class.std::basic_ostream"* nonnull align 8 dereferenceable(8), i32) local_unnamed_addr #0

declare nonnull align 8 dereferenceable(8) %"class.std::basic_ostream"* @_ZNSo3putEc(%"class.std::basic_ostream"* nonnull align 8 dereferenceable(8), i8 signext) local_unnamed_addr #0

declare nonnull align 8 dereferenceable(8) %"class.std::basic_ostream"* @_ZNSo5flushEv(%"class.std::basic_ostream"* nonnull align 8 dereferenceable(8)) local_unnamed_addr #0

; Function Attrs: noreturn
declare void @_ZSt16__throw_bad_castv() local_unnamed_addr #5

declare void @_ZNKSt5ctypeIcE13_M_widen_initEv(%"class.std::ctype"* nonnull align 8 dereferenceable(570)) local_unnamed_addr #0

; Function Attrs: sspstrong uwtable
define internal void @_GLOBAL__sub_I_3128.cpp() #6 section ".text.startup" {
  tail call void @_ZNSt8ios_base4InitC1Ev(%"class.std::ios_base::Init"* nonnull align 1 dereferenceable(1) @_ZStL8__ioinit)
  %1 = tail call i32 @__cxa_atexit(void (i8*)* bitcast (void (%"class.std::ios_base::Init"*)* @_ZNSt8ios_base4InitD1Ev to void (i8*)*), i8* getelementptr inbounds (%"class.std::ios_base::Init", %"class.std::ios_base::Init"* @_ZStL8__ioinit, i64 0, i32 0), i8* nonnull @__dso_handle) #8
  ret void
}

; Function Attrs: nofree nosync nounwind readnone willreturn
declare i32 @llvm.vector.reduce.add.v4i32(<4 x i32>) #7


!llvm.module.flags = !{!0, !1, !2, !3}
!llvm.ident = !{!4}

!0 = !{i32 1, !"wchar_size", i32 4}
!1 = !{i32 7, !"PIC Level", i32 2}
!2 = !{i32 7, !"PIE Level", i32 2}
!3 = !{i32 7, !"uwtable", i32 1}
!4 = !{!"clang version 13.0.0"}
!5 = !{!6, !6, i64 0}
!6 = !{!"int", !7, i64 0}
!7 = !{!"omnipotent char", !8, i64 0}
!8 = !{!"Simple C++ TBAA"}
!9 = distinct !{!9, !10, !11}
!10 = !{!"llvm.loop.mustprogress"}
!11 = !{!"llvm.loop.isvectorized", i32 1}
!12 = distinct !{!12, !10, !11}
!13 = distinct !{!13, !10, !14, !11}
!14 = !{!"llvm.loop.unroll.runtime.disable"}
!15 = !{!16, !16, i64 0}
!16 = !{!"vtable pointer", !8, i64 0}
!17 = !{!18, !19, i64 240}
!18 = !{!"_ZTSSt9basic_iosIcSt11char_traitsIcEE", !19, i64 216, !7, i64 224, !20, i64 225, !19, i64 232, !19, i64 240, !19, i64 248, !19, i64 256}
!19 = !{!"any pointer", !7, i64 0}
!20 = !{!"bool", !7, i64 0}
!21 = !{!22, !7, i64 56}
!22 = !{!"_ZTSSt5ctypeIcE", !19, i64 16, !20, i64 24, !19, i64 32, !19, i64 40, !19, i64 48, !7, i64 56, !7, i64 57, !7, i64 313, !7, i64 569}
!23 = !{!7, !7, i64 0}
!24 = distinct !{!24, !10, !14, !11}
